; Function Attrs: mustprogress uwtable
define void @_ZN10open_spiel9dou_dizhu16FormatSingleHandB5cxx11EN4absl7debian24SpanIKiEE(ptr dead_on_unwind noalias nonnull writable sret(%"class.std::__cxx11::basic_string") align 8 %0, ptr nocapture readonly %1, i64 %2) local_unnamed_addr #4 personality ptr @__gxx_personality_v0 {
  %4 = alloca %"class.absl::debian2::AlphaNum", align 8
  %5 = alloca %"class.std::__cxx11::basic_string", align 8
  tail call void @_ZNSt7__cxx1112basic_stringIcSt11char_traitsIcESaIcEEC1Ev(ptr noundef nonnull align 8 dereferenceable(32) %0) #19
  %6 = getelementptr inbounds nuw i8, ptr %4, i64 8
  br label %.preheader

.preheader:                                       ; preds = %3, %.split.us
  %indvars.iv = phi i64 [ 0, %3 ], [ %indvars.iv.next, %.split.us ]
  %exitcond.not = icmp eq i64 %indvars.iv, %2
  br i1 %exitcond.not, label %.preheader._crit_edge, label %_ZNK4absl7debian24SpanIKiEixEm.exit.lr.ph

_ZNK4absl7debian24SpanIKiEixEm.exit.lr.ph:        ; preds = %.preheader
  %7 = getelementptr inbounds i32, ptr %1, i64 %indvars.iv
  %8 = load i32, ptr %7, align 4
  %9 = icmp sgt i32 %8, 0
  br i1 %9, label %.lr.ph.preheader, label %.split.us

.lr.ph.preheader:                                 ; preds = %_ZNK4absl7debian24SpanIKiEixEm.exit.lr.ph
  %10 = trunc nuw nsw i64 %indvars.iv to i32
  br label %.lr.ph

.lr.ph:                                           ; preds = %.lr.ph.preheader, %_ZNK4absl7debian24SpanIKiEixEm.exit.us
  %.0912.us28 = phi i32 [ %15, %_ZNK4absl7debian24SpanIKiEixEm.exit.us ], [ 0, %.lr.ph.preheader ]
  invoke void @_ZN10open_spiel9dou_dizhu10RankStringB5cxx11Ei(ptr dead_on_unwind nonnull writable sret(%"class.std::__cxx11::basic_string") align 8 %5, i32 noundef %10)
          to label %11 unwind label %.split14.us

11:                                               ; preds = %.lr.ph
  %12 = call noundef ptr @_ZNKSt7__cxx1112basic_stringIcSt11char_traitsIcESaIcEE4dataEv(ptr noundef nonnull align 8 dereferenceable(32) %5) #19
  %13 = call noundef i64 @_ZNKSt7__cxx1112basic_stringIcSt11char_traitsIcESaIcEE4sizeEv(ptr noundef nonnull align 8 dereferenceable(32) %5) #19
  store ptr %12, ptr %4, align 8
  %14 = icmp sgt i64 %13, -1
  br i1 %14, label %_ZN4absl7debian28AlphaNumC2ISaIcEEERKNSt7__cxx1112basic_stringIcSt11char_traitsIcET_EE.exit.us, label %.split16.us

_ZN4absl7debian28AlphaNumC2ISaIcEEERKNSt7__cxx1112basic_stringIcSt11char_traitsIcET_EE.exit.us: ; preds = %11
  store i64 %13, ptr %6, align 8
  invoke void @_ZN4absl7debian29StrAppendEPNSt7__cxx1112basic_stringIcSt11char_traitsIcESaIcEEERKNS0_8AlphaNumE(ptr noundef nonnull %0, ptr noundef nonnull align 8 dereferenceable(48) %4)
          to label %_ZNK4absl7debian24SpanIKiEixEm.exit.us unwind label %.split18.us

_ZNK4absl7debian24SpanIKiEixEm.exit.us:           ; preds = %_ZN4absl7debian28AlphaNumC2ISaIcEEERKNSt7__cxx1112basic_stringIcSt11char_traitsIcET_EE.exit.us
  call void @_ZNSt7__cxx1112basic_stringIcSt11char_traitsIcESaIcEED1Ev(ptr noundef nonnull align 8 dereferenceable(32) %5) #19
  %15 = add nuw nsw i32 %.0912.us28, 1
  %16 = load i32, ptr %7, align 4
  %17 = icmp slt i32 %15, %16
  br i1 %17, label %.lr.ph, label %.split.us

.split14.us:                                      ; preds = %.lr.ph
  %18 = landingpad { ptr, i32 }
          cleanup
  br label %21

.split18.us:                                      ; preds = %_ZN4absl7debian28AlphaNumC2ISaIcEEERKNSt7__cxx1112basic_stringIcSt11char_traitsIcET_EE.exit.us
  %19 = landingpad { ptr, i32 }
          cleanup
  call void @_ZNSt7__cxx1112basic_stringIcSt11char_traitsIcESaIcEED1Ev(ptr noundef nonnull align 8 dereferenceable(32) %5) #19
  br label %21

.preheader._crit_edge:                            ; preds = %.preheader
  call void @llvm.trap()
  unreachable

.split16.us:                                      ; preds = %11
  call void @llvm.trap()
  unreachable

.split.us:                                        ; preds = %_ZNK4absl7debian24SpanIKiEixEm.exit.us, %_ZNK4absl7debian24SpanIKiEixEm.exit.lr.ph
  %indvars.iv.next = add nuw nsw i64 %indvars.iv, 1
  %exitcond32.not = icmp eq i64 %indvars.iv.next, 15
  br i1 %exitcond32.not, label %20, label %.preheader, !llvm.loop !7

20:                                               ; preds = %.split.us
  ret void

21:                                               ; preds = %.split18.us, %.split14.us
  %.pn = phi { ptr, i32 } [ %19, %.split18.us ], [ %18, %.split14.us ]
  call void @_ZNSt7__cxx1112basic_stringIcSt11char_traitsIcESaIcEED1Ev(ptr noundef nonnull align 8 dereferenceable(32) %0) #19
  resume { ptr, i32 } %.pn
}